; Function Attrs: mustprogress uwtable
define dso_local void @_ZN28btSoftMultiBodyDynamicsWorld21removeCollisionObjectEP17btCollisionObject(ptr noundef nonnull align 8 dereferenceable(1025) %0, ptr noundef %1) unnamed_addr #0 align 2 {
  %3 = getelementptr inbounds nuw i8, ptr %1, i64 272
  %4 = load i32, ptr %3, align 8, !tbaa !211
  %5 = icmp ne i32 %4, 8
  %.not5 = icmp eq ptr %1, null
  %.not = or i1 %.not5, %5
  br i1 %.not, label %27, label %6

6:                                                ; preds = %2
  %7 = getelementptr inbounds nuw i8, ptr %0, i64 852
  %8 = load i32, ptr %7, align 4, !tbaa !16
  %9 = icmp sgt i32 %8, 0
  br i1 %9, label %.lr.ph.i.i.i, label %_ZN28btSoftMultiBodyDynamicsWorld14removeSoftBodyEP10btSoftBody.exit

.lr.ph.i.i.i:                                     ; preds = %6
  %10 = getelementptr inbounds nuw i8, ptr %0, i64 864
  %11 = load ptr, ptr %10, align 8, !tbaa !15
  %wide.trip.count.i.i.i = zext nneg i32 %8 to i64
  br label %12

12:                                               ; preds = %16, %.lr.ph.i.i.i
  %indvars.iv.i.i.i = phi i64 [ 0, %.lr.ph.i.i.i ], [ %indvars.iv.next.i.i.i, %16 ]
  %13 = getelementptr inbounds nuw ptr, ptr %11, i64 %indvars.iv.i.i.i
  %14 = load ptr, ptr %13, align 8, !tbaa !116
  %15 = icmp eq ptr %14, %1
  br i1 %15, label %_ZNK20btAlignedObjectArrayIP10btSoftBodyE16findLinearSearchERKS1_.exit.i.i, label %16

16:                                               ; preds = %12
  %indvars.iv.next.i.i.i = add nuw nsw i64 %indvars.iv.i.i.i, 1
  %exitcond.not.i.i.i = icmp eq i64 %indvars.iv.next.i.i.i, %wide.trip.count.i.i.i
  br i1 %exitcond.not.i.i.i, label %_ZN28btSoftMultiBodyDynamicsWorld14removeSoftBodyEP10btSoftBody.exit, label %12, !llvm.loop !210

_ZNK20btAlignedObjectArrayIP10btSoftBodyE16findLinearSearchERKS1_.exit.i.i: ; preds = %12
  %17 = trunc nuw nsw i64 %indvars.iv.i.i.i to i32
  %18 = icmp sgt i32 %8, %17
  br i1 %18, label %19, label %_ZN28btSoftMultiBodyDynamicsWorld14removeSoftBodyEP10btSoftBody.exit

19:                                               ; preds = %_ZNK20btAlignedObjectArrayIP10btSoftBodyE16findLinearSearchERKS1_.exit.i.i
  %20 = add nsw i32 %8, -1
  %sext.i.i = shl i64 %indvars.iv.i.i.i, 32
  %21 = ashr exact i64 %sext.i.i, 29
  %22 = getelementptr inbounds i8, ptr %11, i64 %21
  %23 = load ptr, ptr %22, align 8, !tbaa !116
  %24 = sext i32 %20 to i64
  %25 = getelementptr inbounds ptr, ptr %11, i64 %24
  %26 = load ptr, ptr %25, align 8, !tbaa !116
  store ptr %26, ptr %22, align 8, !tbaa !116
  store ptr %23, ptr %25, align 8, !tbaa !116
  store i32 %20, ptr %7, align 4, !tbaa !16
  br label %_ZN28btSoftMultiBodyDynamicsWorld14removeSoftBodyEP10btSoftBody.exit

_ZN28btSoftMultiBodyDynamicsWorld14removeSoftBodyEP10btSoftBody.exit: ; preds = %16, %6, %_ZNK20btAlignedObjectArrayIP10btSoftBodyE16findLinearSearchERKS1_.exit.i.i, %19
  tail call void @_ZN16btCollisionWorld21removeCollisionObjectEP17btCollisionObject(ptr noundef nonnull align 8 dereferenceable(1025) %0, ptr noundef nonnull %1)
  br label %28

27:                                               ; preds = %2
  tail call void @_ZN23btDiscreteDynamicsWorld21removeCollisionObjectEP17btCollisionObject(ptr noundef nonnull align 8 dereferenceable(508) %0, ptr noundef nonnull %1)
  br label %28

28:                                               ; preds = %27, %_ZN28btSoftMultiBodyDynamicsWorld14removeSoftBodyEP10btSoftBody.exit
  ret void
}